target datalayout = "e-m:e-p270:32:32-p271:32:32-p272:64:64-i64:64-i128:128-f80:128-n8:16:32:64-S128"
target triple = "x86_64-pc-linux-gnu"

; Function Attrs: mustprogress nounwind uwtable
define noundef i64 @_ZN10open_spiel10phantom_go21VirtualActionToActionEii(i32 noundef %0, i32 noundef %1) #4 {
  %3 = alloca i64, align 8
  %4 = alloca i32, align 4
  %5 = alloca i32, align 4
  %6 = alloca i32, align 4
  %7 = alloca i32, align 4
  store i32 %0, ptr %4, align 4
  store i32 %1, ptr %5, align 4
  %8 = load i32, ptr %4, align 4
  %9 = icmp eq i32 %8, 442
  br i1 %9, label %10, label %15

10:                                               ; preds = %2
  %11 = load i32, ptr %5, align 4
  %12 = load i32, ptr %5, align 4
  %13 = mul nsw i32 %11, %12
  %14 = sext i32 %13 to i64
  store i64 %14, ptr %3, align 8
  br label %28

15:                                               ; preds = %2
  %16 = load i32, ptr %4, align 4
  %17 = sdiv i32 %16, 21
  store i32 %17, ptr %6, align 4
  %18 = load i32, ptr %4, align 4
  %19 = srem i32 %18, 21
  store i32 %19, ptr %7, align 4
  %20 = load i32, ptr %5, align 4
  %21 = load i32, ptr %6, align 4
  %22 = sub nsw i32 %21, 1
  %23 = mul nsw i32 %20, %22
  %24 = load i32, ptr %7, align 4
  %25 = sub nsw i32 %24, 1
  %26 = add nsw i32 %23, %25
  %27 = sext i32 %26 to i64
  store i64 %27, ptr %3, align 8
  br label %28

28:                                               ; preds = %15, %10
  %29 = load i64, ptr %3, align 8
  ret i64 %29
}