; Function Attrs: mustprogress nofree norecurse nosync nounwind willreturn memory(none) uwtable
define noundef range(i64 -2147483648, 2147483648) i64 @_ZN10open_spiel10phantom_go21VirtualActionToActionEii(i32 noundef %0, i32 noundef %1) local_unnamed_addr #6 {
  %3 = icmp eq i32 %0, 442
  br i1 %3, label %4, label %7

4:                                                ; preds = %2
  %5 = mul nsw i32 %1, %1
  %6 = zext nneg i32 %5 to i64
  br label %15

7:                                                ; preds = %2
  %8 = sdiv i32 %0, 21
  %9 = srem i32 %0, 21
  %10 = add nsw i32 %8, -1
  %11 = mul nsw i32 %10, %1
  %12 = add nsw i32 %9, -1
  %13 = add nsw i32 %12, %11
  %14 = sext i32 %13 to i64
  br label %15

15:                                               ; preds = %7, %4
  %.0 = phi i64 [ %6, %4 ], [ %14, %7 ]
  ret i64 %.0
}